
zelfbinary:     file format elf64-littleaarch64


Disassembly of section .text:

00000000004000b0 <_start>:
  4000b0:	94000006 	bl	4000c8 <welcome>

00000000004000b4 <.main_loop>:
  4000b4:	94000081 	bl	4002b8 <make_move>
  4000b8:	94000066 	bl	400250 <draw_board>
  4000bc:	94000009 	bl	4000e0 <check_game_over>
  4000c0:	940000a3 	bl	40034c <switch_player>
  4000c4:	17fffffc 	b	4000b4 <.main_loop>

00000000004000c8 <welcome>:
  4000c8:	d2800020 	mov	x0, #0x1                   	// #1
  4000cc:	580015e1 	ldr	x1, 400388 <exit+0x10>
  4000d0:	d28006c2 	mov	x2, #0x36                  	// #54
  4000d4:	d2800808 	mov	x8, #0x40                  	// #64
  4000d8:	d4000001 	svc	#0x0
  4000dc:	d65f03c0 	ret

00000000004000e0 <check_game_over>:
  4000e0:	58001581 	ldr	x1, 400390 <exit+0x18>
  4000e4:	39400022 	ldrb	w2, [x1]
  4000e8:	58001589 	ldr	x9, 400398 <exit+0x20>
  4000ec:	3940012a 	ldrb	w10, [x9]
  4000f0:	3940052b 	ldrb	w11, [x9, #1]
  4000f4:	3940092c 	ldrb	w12, [x9, #2]
  4000f8:	39400d2d 	ldrb	w13, [x9, #3]
  4000fc:	3940112e 	ldrb	w14, [x9, #4]
  400100:	3940152f 	ldrb	w15, [x9, #5]
  400104:	39401930 	ldrb	w16, [x9, #6]
  400108:	39401d31 	ldrb	w17, [x9, #7]
  40010c:	39402132 	ldrb	w18, [x9, #8]

0000000000400110 <.win_case_1>:
  400110:	6b02015f 	cmp	w10, w2
  400114:	540000c1 	b.ne	40012c <.win_case_2>  // b.any
  400118:	6b02017f 	cmp	w11, w2
  40011c:	54000081 	b.ne	40012c <.win_case_2>  // b.any
  400120:	6b02019f 	cmp	w12, w2
  400124:	54000041 	b.ne	40012c <.win_case_2>  // b.any
  400128:	14000033 	b	4001f4 <player_won>

000000000040012c <.win_case_2>:
  40012c:	6b0201bf 	cmp	w13, w2
  400130:	540000c1 	b.ne	400148 <.win_case_3>  // b.any
  400134:	6b0201df 	cmp	w14, w2
  400138:	54000081 	b.ne	400148 <.win_case_3>  // b.any
  40013c:	6b0201ff 	cmp	w15, w2
  400140:	54000041 	b.ne	400148 <.win_case_3>  // b.any
  400144:	1400002c 	b	4001f4 <player_won>

0000000000400148 <.win_case_3>:
  400148:	6b02021f 	cmp	w16, w2
  40014c:	540000c1 	b.ne	400164 <.win_case_4>  // b.any
  400150:	6b02023f 	cmp	w17, w2
  400154:	54000081 	b.ne	400164 <.win_case_4>  // b.any
  400158:	6b02025f 	cmp	w18, w2
  40015c:	54000041 	b.ne	400164 <.win_case_4>  // b.any
  400160:	14000025 	b	4001f4 <player_won>

0000000000400164 <.win_case_4>:
  400164:	6b02015f 	cmp	w10, w2
  400168:	540000c1 	b.ne	400180 <.win_case_5>  // b.any
  40016c:	6b0201bf 	cmp	w13, w2
  400170:	54000081 	b.ne	400180 <.win_case_5>  // b.any
  400174:	6b02021f 	cmp	w16, w2
  400178:	54000041 	b.ne	400180 <.win_case_5>  // b.any
  40017c:	1400001e 	b	4001f4 <player_won>

0000000000400180 <.win_case_5>:
  400180:	6b02017f 	cmp	w11, w2
  400184:	540000c1 	b.ne	40019c <.win_case_6>  // b.any
  400188:	6b0201df 	cmp	w14, w2
  40018c:	54000081 	b.ne	40019c <.win_case_6>  // b.any
  400190:	6b02023f 	cmp	w17, w2
  400194:	54000041 	b.ne	40019c <.win_case_6>  // b.any
  400198:	14000017 	b	4001f4 <player_won>

000000000040019c <.win_case_6>:
  40019c:	6b02019f 	cmp	w12, w2
  4001a0:	540000c1 	b.ne	4001b8 <.win_case_7>  // b.any
  4001a4:	6b0201ff 	cmp	w15, w2
  4001a8:	54000081 	b.ne	4001b8 <.win_case_7>  // b.any
  4001ac:	6b02025f 	cmp	w18, w2
  4001b0:	54000041 	b.ne	4001b8 <.win_case_7>  // b.any
  4001b4:	14000010 	b	4001f4 <player_won>

00000000004001b8 <.win_case_7>:
  4001b8:	6b02015f 	cmp	w10, w2
  4001bc:	540000c1 	b.ne	4001d4 <.win_case_8>  // b.any
  4001c0:	6b0201df 	cmp	w14, w2
  4001c4:	54000081 	b.ne	4001d4 <.win_case_8>  // b.any
  4001c8:	6b02025f 	cmp	w18, w2
  4001cc:	54000041 	b.ne	4001d4 <.win_case_8>  // b.any
  4001d0:	14000009 	b	4001f4 <player_won>

00000000004001d4 <.win_case_8>:
  4001d4:	6b02019f 	cmp	w12, w2
  4001d8:	540000c1 	b.ne	4001f0 <.return>  // b.any
  4001dc:	6b0201df 	cmp	w14, w2
  4001e0:	54000081 	b.ne	4001f0 <.return>  // b.any
  4001e4:	6b02021f 	cmp	w16, w2
  4001e8:	54000041 	b.ne	4001f0 <.return>  // b.any
  4001ec:	14000002 	b	4001f4 <player_won>

00000000004001f0 <.return>:
  4001f0:	d65f03c0 	ret

00000000004001f4 <player_won>:
  4001f4:	d2800020 	mov	x0, #0x1                   	// #1
  4001f8:	58000d41 	ldr	x1, 4003a0 <exit+0x28>
  4001fc:	d2800202 	mov	x2, #0x10                  	// #16
  400200:	d2800808 	mov	x8, #0x40                  	// #64
  400204:	d4000001 	svc	#0x0
  400208:	d2800020 	mov	x0, #0x1                   	// #1
  40020c:	58000c21 	ldr	x1, 400390 <exit+0x18>
  400210:	d2800022 	mov	x2, #0x1                   	// #1
  400214:	d2800808 	mov	x8, #0x40                  	// #64
  400218:	d4000001 	svc	#0x0
  40021c:	d2800020 	mov	x0, #0x1                   	// #1
  400220:	58000c41 	ldr	x1, 4003a8 <exit+0x30>
  400224:	d2800022 	mov	x2, #0x1                   	// #1
  400228:	d2800808 	mov	x8, #0x40                  	// #64
  40022c:	d4000001 	svc	#0x0
  400230:	14000052 	b	400378 <exit>

0000000000400234 <game_over>:
  400234:	94000007 	bl	400250 <draw_board>
  400238:	d2800020 	mov	x0, #0x1                   	// #1
  40023c:	58000ba1 	ldr	x1, 4003b0 <exit+0x38>
  400240:	d28003a2 	mov	x2, #0x1d                  	// #29
  400244:	d2800808 	mov	x8, #0x40                  	// #64
  400248:	d4000001 	svc	#0x0
  40024c:	1400004b 	b	400378 <exit>

0000000000400250 <draw_board>:
  400250:	d2800009 	mov	x9, #0x0                   	// #0

0000000000400254 <.loop>:
  400254:	f100253f 	cmp	x9, #0x9
  400258:	540002ea 	b.ge	4002b4 <.end_loop>  // b.tcont
  40025c:	d2800020 	mov	x0, #0x1                   	// #1
  400260:	10080bc1 	adr	x1, 4103d8 <board>
  400264:	8b090021 	add	x1, x1, x9
  400268:	d2800022 	mov	x2, #0x1                   	// #1
  40026c:	d2800808 	mov	x8, #0x40                  	// #64
  400270:	d4000001 	svc	#0x0
  400274:	30080b81 	adr	x1, 4103e5 <space>
  400278:	d4000001 	svc	#0x0
  40027c:	f100093f 	cmp	x9, #0x2
  400280:	540000c0 	b.eq	400298 <.new_line>  // b.none
  400284:	f100153f 	cmp	x9, #0x5
  400288:	54000080 	b.eq	400298 <.new_line>  // b.none
  40028c:	f100213f 	cmp	x9, #0x8
  400290:	54000040 	b.eq	400298 <.new_line>  // b.none
  400294:	14000006 	b	4002ac <.skip_print>

0000000000400298 <.new_line>:
  400298:	d2800020 	mov	x0, #0x1                   	// #1
  40029c:	58000861 	ldr	x1, 4003a8 <exit+0x30>
  4002a0:	d2800022 	mov	x2, #0x1                   	// #1
  4002a4:	d2800808 	mov	x8, #0x40                  	// #64
  4002a8:	d4000001 	svc	#0x0

00000000004002ac <.skip_print>:
  4002ac:	91000529 	add	x9, x9, #0x1
  4002b0:	17ffffe9 	b	400254 <.loop>

00000000004002b4 <.end_loop>:
  4002b4:	d65f03c0 	ret

00000000004002b8 <make_move>:
  4002b8:	d2800020 	mov	x0, #0x1                   	// #1
  4002bc:	580007e1 	ldr	x1, 4003b8 <exit+0x40>
  4002c0:	d2800282 	mov	x2, #0x14                  	// #20
  4002c4:	d2800808 	mov	x8, #0x40                  	// #64
  4002c8:	d4000001 	svc	#0x0
  4002cc:	d2800000 	mov	x0, #0x0                   	// #0
  4002d0:	58000781 	ldr	x1, 4003c0 <exit+0x48>
  4002d4:	d2800042 	mov	x2, #0x2                   	// #2
  4002d8:	d28007e8 	mov	x8, #0x3f                  	// #63
  4002dc:	d4000001 	svc	#0x0
  4002e0:	aa0103ed 	mov	x13, x1
  4002e4:	394001ae 	ldrb	w14, [x13]
  4002e8:	5100c5ce 	sub	w14, w14, #0x31
  4002ec:	710001df 	cmp	w14, #0x0
  4002f0:	5400022b 	b.lt	400334 <.invalid_move>  // b.tstop
  4002f4:	710025df 	cmp	w14, #0x9
  4002f8:	540001ec 	b.gt	400334 <.invalid_move>
  4002fc:	580004ea 	ldr	x10, 400398 <exit+0x20>
  400300:	5800048b 	ldr	x11, 400390 <exit+0x18>
  400304:	3940016c 	ldrb	w12, [x11]
  400308:	386e694d 	ldrb	w13, [x10, x14]
  40030c:	f100b5bf 	cmp	x13, #0x2d
  400310:	54000121 	b.ne	400334 <.invalid_move>  // b.any
  400314:	382e694c 	strb	w12, [x10, x14]
  400318:	5800058e 	ldr	x14, 4003c8 <exit+0x50>
  40031c:	394001cf 	ldrb	w15, [x14]
  400320:	110005ef 	add	w15, w15, #0x1
  400324:	390001cf 	strb	w15, [x14]
  400328:	710025ff 	cmp	w15, #0x9
  40032c:	54fff840 	b.eq	400234 <game_over>  // b.none
  400330:	d65f03c0 	ret

0000000000400334 <.invalid_move>:
  400334:	d2800020 	mov	x0, #0x1                   	// #1
  400338:	580004c1 	ldr	x1, 4003d0 <exit+0x58>
  40033c:	d28003a2 	mov	x2, #0x1d                  	// #29
  400340:	d2800808 	mov	x8, #0x40                  	// #64
  400344:	d4000001 	svc	#0x0
  400348:	17ffffdc 	b	4002b8 <make_move>

000000000040034c <switch_player>:
  40034c:	5800022b 	ldr	x11, 400390 <exit+0x18>
  400350:	3940016c 	ldrb	w12, [x11]
  400354:	7101619f 	cmp	w12, #0x58
  400358:	540000a0 	b.eq	40036c <.select_player_2>  // b.none
  40035c:	54000021 	b.ne	400360 <.select_player_1>  // b.any

0000000000400360 <.select_player_1>:
  400360:	52800b0c 	mov	w12, #0x58                  	// #88
  400364:	3900016c 	strb	w12, [x11]
  400368:	d65f03c0 	ret

000000000040036c <.select_player_2>:
  40036c:	528009ec 	mov	w12, #0x4f                  	// #79
  400370:	3900016c 	strb	w12, [x11]
  400374:	d65f03c0 	ret

0000000000400378 <exit>:
  400378:	d2800000 	mov	x0, #0x0                   	// #0
  40037c:	d2800ba8 	mov	x8, #0x5d                  	// #93
  400380:	d4000001 	svc	#0x0
  400384:	d65f03c0 	ret
  400388:	004103e7 	.word	0x004103e7
  40038c:	00000000 	.word	0x00000000
  400390:	004103e1 	.word	0x004103e1
  400394:	00000000 	.word	0x00000000
  400398:	004103d8 	.word	0x004103d8
  40039c:	00000000 	.word	0x00000000
  4003a0:	0041044e 	.word	0x0041044e
  4003a4:	00000000 	.word	0x00000000
  4003a8:	004103e6 	.word	0x004103e6
  4003ac:	00000000 	.word	0x00000000
  4003b0:	0041045e 	.word	0x0041045e
  4003b4:	00000000 	.word	0x00000000
  4003b8:	0041041d 	.word	0x0041041d
  4003bc:	00000000 	.word	0x00000000
  4003c0:	004103e2 	.word	0x004103e2
  4003c4:	00000000 	.word	0x00000000
  4003c8:	004103e4 	.word	0x004103e4
  4003cc:	00000000 	.word	0x00000000
  4003d0:	00410431 	.word	0x00410431
  4003d4:	00000000 	.word	0x00000000
